; Function Attrs: mustprogress nounwind uwtable
define internal fastcc noundef ptr @_ZN12_GLOBAL__N_117ScalarExprEmitter16VisitCoawaitExprEPN5clang11CoawaitExprE(ptr nonnull %.0.val, ptr noundef nonnull %0) unnamed_addr #0 align 2 {
  %.sroa.4.i = alloca [23 x i8], align 1
  %2 = alloca %"class.clang::CodeGen::RValue", align 8
  %3 = alloca %"class.clang::CodeGen::AggValueSlot", align 8
  tail call void @llvm.experimental.noalias.scope.decl(metadata !221)
  call void @llvm.lifetime.start.p0(i64 23, ptr nonnull %.sroa.4.i)
  %.sroa.6.0..sroa_idx.i = getelementptr inbounds nuw i8, ptr %3, i64 8
  call void @llvm.memset.p0.i64(ptr noundef nonnull align 8 dereferenceable(16) %.sroa.6.0..sroa_idx.i, i8 0, i64 16, i1 false), !alias.scope !221
  %.sroa.4.i.7.i.7.i.7..sroa_idx = getelementptr inbounds nuw i8, ptr %.sroa.4.i, i64 7
  call void @llvm.memset.p0.i64(ptr noundef nonnull align 1 dereferenceable(16) %.sroa.4.i.7.i.7.i.7..sroa_idx, i8 0, i64 16, i1 false), !alias.scope !224, !noalias !221
  store i64 0, ptr %3, align 8, !alias.scope !221
  %.sroa.64.0..sroa_idx.i = getelementptr inbounds nuw i8, ptr %3, i64 24
  store i8 0, ptr %.sroa.64.0..sroa_idx.i, align 8, !alias.scope !221
  %.sroa.7.0..sroa_idx.i = getelementptr inbounds nuw i8, ptr %3, i64 25
  call void @llvm.memcpy.p0.p0.i64(ptr noundef nonnull align 1 dereferenceable(23) %.sroa.7.0..sroa_idx.i, ptr noundef nonnull align 1 dereferenceable(23) %.sroa.4.i, i64 23, i1 false)
  %4 = getelementptr inbounds nuw i8, ptr %3, i64 48
  store i64 0, ptr %4, align 8, !alias.scope !227
  %5 = getelementptr inbounds nuw i8, ptr %3, i64 56
  store i8 0, ptr %5, align 8, !alias.scope !227
  call void @llvm.lifetime.end.p0(i64 23, ptr nonnull %.sroa.4.i)
  call void @_ZN5clang7CodeGen15CodeGenFunction15EmitCoawaitExprERKNS_11CoawaitExprENS0_12AggValueSlotEb(ptr dead_on_unwind nonnull writable sret(%"class.clang::CodeGen::RValue") align 8 %2, ptr noundef nonnull align 8 dereferenceable(6488) %.0.val, ptr noundef nonnull align 8 dereferenceable(72) %0, ptr noundef nonnull byval(%"class.clang::CodeGen::AggValueSlot") align 8 %3, i1 noundef zeroext false) #19
  %6 = load ptr, ptr %2, align 8
  ret ptr %6
}